target datalayout = "e-m:e-p270:32:32-p271:32:32-p272:64:64-i64:64-i128:128-f80:128-n8:16:32:64-S128"
target triple = "x86_64-pc-linux-gnu"

%struct.slabclass_t = type { i32, i32, ptr, i32, i32, ptr, i32 }
%struct._stritem = type { ptr, ptr, ptr, i32, i32, i32, i16, i16, i8, i8, [0 x %union.anon] }
%union.anon = type { i64 }

@slabclass = internal global [64 x %struct.slabclass_t] zeroinitializer, align 16

; Function Attrs: nounwind uwtable
define dso_local void @do_slabs_unlink_free_chunk(i32 noundef %0, ptr noundef %1) #0 {
  %3 = alloca i32, align 4
  %4 = alloca ptr, align 8
  %5 = alloca ptr, align 8
  store i32 %0, ptr %3, align 4, !tbaa !8
  store ptr %1, ptr %4, align 8, !tbaa !22
  call void @llvm.lifetime.start.p0(i64 8, ptr %5) #9
  %6 = load i32, ptr %3, align 4, !tbaa !8
  %7 = zext i32 %6 to i64
  %8 = getelementptr inbounds nuw [64 x %struct.slabclass_t], ptr @slabclass, i64 0, i64 %7
  store ptr %8, ptr %5, align 8, !tbaa !25
  %9 = load ptr, ptr %5, align 8, !tbaa !25
  %10 = getelementptr inbounds nuw %struct.slabclass_t, ptr %9, i32 0, i32 2
  %11 = load ptr, ptr %10, align 8, !tbaa !30
  %12 = load ptr, ptr %4, align 8, !tbaa !22
  %13 = icmp eq ptr %11, %12
  br i1 %13, label %14, label %20

14:                                               ; preds = %2
  %15 = load ptr, ptr %4, align 8, !tbaa !22
  %16 = getelementptr inbounds nuw %struct._stritem, ptr %15, i32 0, i32 0
  %17 = load ptr, ptr %16, align 8, !tbaa !22
  %18 = load ptr, ptr %5, align 8, !tbaa !25
  %19 = getelementptr inbounds nuw %struct.slabclass_t, ptr %18, i32 0, i32 2
  store ptr %17, ptr %19, align 8, !tbaa !30
  br label %20

20:                                               ; preds = %14, %2
  %21 = load ptr, ptr %4, align 8, !tbaa !22
  %22 = getelementptr inbounds nuw %struct._stritem, ptr %21, i32 0, i32 0
  %23 = load ptr, ptr %22, align 8, !tbaa !22
  %24 = icmp ne ptr %23, null
  br i1 %24, label %25, label %33

25:                                               ; preds = %20
  %26 = load ptr, ptr %4, align 8, !tbaa !22
  %27 = getelementptr inbounds nuw %struct._stritem, ptr %26, i32 0, i32 1
  %28 = load ptr, ptr %27, align 8, !tbaa !22
  %29 = load ptr, ptr %4, align 8, !tbaa !22
  %30 = getelementptr inbounds nuw %struct._stritem, ptr %29, i32 0, i32 0
  %31 = load ptr, ptr %30, align 8, !tbaa !22
  %32 = getelementptr inbounds nuw %struct._stritem, ptr %31, i32 0, i32 1
  store ptr %28, ptr %32, align 8, !tbaa !22
  br label %33

33:                                               ; preds = %25, %20
  %34 = load ptr, ptr %4, align 8, !tbaa !22
  %35 = getelementptr inbounds nuw %struct._stritem, ptr %34, i32 0, i32 1
  %36 = load ptr, ptr %35, align 8, !tbaa !22
  %37 = icmp ne ptr %36, null
  br i1 %37, label %38, label %46

38:                                               ; preds = %33
  %39 = load ptr, ptr %4, align 8, !tbaa !22
  %40 = getelementptr inbounds nuw %struct._stritem, ptr %39, i32 0, i32 0
  %41 = load ptr, ptr %40, align 8, !tbaa !22
  %42 = load ptr, ptr %4, align 8, !tbaa !22
  %43 = getelementptr inbounds nuw %struct._stritem, ptr %42, i32 0, i32 1
  %44 = load ptr, ptr %43, align 8, !tbaa !22
  %45 = getelementptr inbounds nuw %struct._stritem, ptr %44, i32 0, i32 0
  store ptr %41, ptr %45, align 8, !tbaa !22
  br label %46

46:                                               ; preds = %38, %33
  %47 = load ptr, ptr %5, align 8, !tbaa !25
  %48 = getelementptr inbounds nuw %struct.slabclass_t, ptr %47, i32 0, i32 3
  %49 = load i32, ptr %48, align 8, !tbaa !31
  %50 = add i32 %49, -1
  store i32 %50, ptr %48, align 8, !tbaa !31
  call void @llvm.lifetime.end.p0(i64 8, ptr %5) #9
  ret void
}