; Function Attrs: mustprogress nofree norecurse nosync nounwind willreturn memory(readwrite, inaccessiblemem: none) uwtable
define dso_local void @do_slabs_unlink_free_chunk(i32 noundef %0, ptr noundef readonly captures(address) %1) local_unnamed_addr #11 {
  %3 = zext i32 %0 to i64
  %4 = getelementptr inbounds nuw [64 x %struct.slabclass_t], ptr @slabclass, i64 0, i64 %3
  %5 = getelementptr inbounds nuw i8, ptr %4, i64 8
  %6 = load ptr, ptr %5, align 8, !tbaa !22
  %7 = icmp eq ptr %6, %1
  %8 = load ptr, ptr %1, align 8, !tbaa !20
  br i1 %7, label %9, label %thread-pre-split

9:                                                ; preds = %2
  store ptr %8, ptr %5, align 8, !tbaa !22
  br label %thread-pre-split

thread-pre-split:                                 ; preds = %2, %9
  %.not = icmp eq ptr %8, null
  %.phi.trans.insert = getelementptr inbounds nuw i8, ptr %1, i64 8
  %.pre = load ptr, ptr %.phi.trans.insert, align 8, !tbaa !20
  br i1 %.not, label %._crit_edge, label %10

10:                                               ; preds = %thread-pre-split
  %11 = getelementptr inbounds nuw i8, ptr %8, i64 8
  store ptr %.pre, ptr %11, align 8, !tbaa !20
  br label %._crit_edge

._crit_edge:                                      ; preds = %thread-pre-split, %10
  %.not13 = icmp eq ptr %.pre, null
  br i1 %.not13, label %14, label %12

12:                                               ; preds = %._crit_edge
  %13 = load ptr, ptr %1, align 8, !tbaa !20
  store ptr %13, ptr %.pre, align 8, !tbaa !20
  br label %14

14:                                               ; preds = %12, %._crit_edge
  %15 = getelementptr inbounds nuw i8, ptr %4, i64 16
  %16 = load i32, ptr %15, align 8, !tbaa !23
  %17 = add i32 %16, -1
  store i32 %17, ptr %15, align 8, !tbaa !23
  ret void
}